(dp1
S'grad_clip'
p2
F5
sS'dim'
p3
I1600
sS'optimizer'
p4
S'adam'
p5
sS'dim_word'
p6
I500
sS'dictionary'
p7
S'/u/rkiros/research/semhash/models/rom1600.npz.dictionary.pkl'
p8
sS'decay_c'
p9
F0
sS'reload_'
p10
I00
sS'n_words'
p11
I20000
sS'batch_size'
p12
I16
sS'encoder'
p13
S'gru'
p14
sS'maxlen_w'
p15
I300
sS'saveto'
p16
S'/u/rkiros/research/semhash/models/grom1600.npz'
p17
sS'embeddings'
p18
S'/ais/gobi3/u/rkiros/desent/D_cbow_pdw_8B.pkl'
p19
sS'decoder'
p20
g14
sS'sampleFreq'
p21
I100
sS'max_epochs'
p22
I5
sS'dispFreq'
p23
I1
sS'dimctx'
p24
I4800
sS'saveFreq'
p25
I1000
s.